; Function Attrs: mustprogress nofree norecurse nosync nounwind memory(readwrite, inaccessiblemem: none) uwtable
define void @_ZN4AAHD16illustrate_dlineEi(ptr noundef nonnull readonly align 8 captures(none) dereferenceable(128) %0, i32 noundef %1) local_unnamed_addr #4 align 2 {
  %3 = getelementptr inbounds nuw i8, ptr %0, i64 120
  %4 = load ptr, ptr %3, align 8, !tbaa !95
  %5 = getelementptr inbounds nuw i8, ptr %4, i64 30
  %6 = load i16, ptr %5, align 2, !tbaa !75
  %.not29 = icmp eq i16 %6, 0
  br i1 %.not29, label %._crit_edge, label %.lr.ph

.lr.ph:                                           ; preds = %2
  %7 = add nsw i32 %1, 4
  %8 = getelementptr inbounds nuw i8, ptr %0, i64 8
  %9 = load ptr, ptr %8, align 8, !tbaa !77
  %10 = getelementptr inbounds nuw i8, ptr %0, i64 4
  %11 = load i32, ptr %10, align 4, !tbaa !76
  %12 = mul nsw i32 %11, %7
  %invariant.op = add i32 %12, 4
  %13 = getelementptr inbounds nuw i8, ptr %0, i64 16
  %14 = load ptr, ptr %13, align 8, !tbaa !77
  %15 = getelementptr inbounds nuw i8, ptr %0, i64 40
  %16 = load ptr, ptr %15, align 8, !tbaa !81
  %17 = getelementptr inbounds nuw i8, ptr %0, i64 64
  %18 = getelementptr inbounds nuw i8, ptr %0, i64 68
  %wide.trip.count = zext i16 %6 to i64
  br label %19

._crit_edge:                                      ; preds = %49, %2
  ret void

19:                                               ; preds = %.lr.ph, %49
  %indvars.iv = phi i64 [ 0, %.lr.ph ], [ %indvars.iv.next, %49 ]
  %20 = trunc nuw nsw i64 %indvars.iv to i32
  %.reass = add i32 %invariant.op, %20
  %21 = sext i32 %.reass to i64
  %22 = getelementptr inbounds [3 x i16], ptr %9, i64 %21, i64 2
  store i16 0, ptr %22, align 2, !tbaa !83
  %23 = getelementptr inbounds [3 x i16], ptr %9, i64 %21, i64 1
  store i16 0, ptr %23, align 2, !tbaa !83
  %24 = getelementptr inbounds [3 x i16], ptr %9, i64 %21
  store i16 0, ptr %24, align 2, !tbaa !83
  %25 = getelementptr inbounds [3 x i16], ptr %14, i64 %21, i64 2
  store i16 0, ptr %25, align 2, !tbaa !83
  %26 = getelementptr inbounds [3 x i16], ptr %14, i64 %21, i64 1
  store i16 0, ptr %26, align 2, !tbaa !83
  %27 = getelementptr inbounds [3 x i16], ptr %14, i64 %21
  store i16 0, ptr %27, align 2, !tbaa !83
  %28 = getelementptr inbounds i8, ptr %16, i64 %21
  %29 = load i8, ptr %28, align 1, !tbaa !104
  %30 = and i8 %29, 1
  %31 = zext nneg i8 %30 to i32
  %32 = and i8 %29, 4
  %.not = icmp eq i8 %32, 0
  br i1 %.not, label %41, label %33

33:                                               ; preds = %19
  %34 = load i16, ptr %17, align 8, !tbaa !83
  %35 = zext i16 %34 to i32
  %36 = mul nuw nsw i32 %35, %31
  %37 = lshr i32 %36, 2
  %38 = lshr i32 %35, 2
  %39 = add nuw nsw i32 %37, %38
  %40 = trunc nuw nsw i32 %39 to i16
  store i16 %40, ptr %27, align 2, !tbaa !83
  br label %49

41:                                               ; preds = %19
  %42 = load i16, ptr %18, align 4, !tbaa !83
  %43 = zext i16 %42 to i32
  %44 = mul nuw nsw i32 %43, %31
  %45 = lshr i32 %44, 2
  %46 = lshr i32 %43, 2
  %47 = add nuw nsw i32 %45, %46
  %48 = trunc nuw nsw i32 %47 to i16
  store i16 %48, ptr %22, align 2, !tbaa !83
  br label %49

49:                                               ; preds = %41, %33
  %indvars.iv.next = add nuw nsw i64 %indvars.iv, 1
  %exitcond.not = icmp eq i64 %indvars.iv.next, %wide.trip.count
  br i1 %exitcond.not, label %._crit_edge, label %19, !llvm.loop !135
}